target datalayout = "e-m:e-p270:32:32-p271:32:32-p272:64:64-i64:64-i128:128-f80:128-n8:16:32:64-S128"
target triple = "x86_64-pc-linux-gnu"

%struct.DecoderPriv = type { %struct.Decoder, ptr, ptr, ptr, ptr, %struct.AVRational, %struct.AVRational, i32, i32, i32, i32, i32, i32, i64, i64, %struct.AVRational, i64, i32, [2 x ptr], ptr, ptr, i32, i32, ptr, [32 x i8], ptr, i32, ptr, i32, ptr, i32, %struct.anon }
%struct.Decoder = type { ptr, i32, ptr, i32, i64, i64, i64 }
%struct.AVRational = type { i32, i32 }
%struct.anon = type { ptr, ptr }
%struct.DecoderOpts = type { i32, ptr, ptr, ptr, ptr, i32, i32, ptr, i32, %struct.AVRational, %struct.AVRational }

@.str.46 = private unnamed_addr constant [9 x i8] c"view_ids\00", align 1
@.str.47 = private unnamed_addr constant [89 x i8] c"Manually selecting views with -view_ids is not recommended, use view specifiers instead\0A\00", align 1

; Function Attrs: nounwind uwtable
define internal void @multiview_check_manual(ptr noundef %0, ptr noundef %1) #0 {
  %3 = alloca ptr, align 8
  %4 = alloca ptr, align 8
  store ptr %0, ptr %3, align 8, !tbaa !12
  store ptr %1, ptr %4, align 8, !tbaa !61
  %5 = load ptr, ptr %4, align 8, !tbaa !61
  %6 = call ptr @av_dict_get(ptr noundef %5, ptr noundef @.str.46, ptr noundef null, i32 noundef 0)
  %7 = icmp ne ptr %6, null
  br i1 %7, label %8, label %12

8:                                                ; preds = %2
  %9 = load ptr, ptr %3, align 8, !tbaa !12
  call void (ptr, i32, ptr, ...) @av_log(ptr noundef %9, i32 noundef 24, ptr noundef @.str.47)
  %10 = load ptr, ptr %3, align 8, !tbaa !12
  %11 = getelementptr inbounds nuw %struct.DecoderPriv, ptr %10, i32 0, i32 26
  store i32 1, ptr %11, align 8, !tbaa !22
  br label %12

12:                                               ; preds = %8, %2
  ret void
}

; Function Attrs: nounwind uwtable
define i32 @dec_init(ptr noundef %0, ptr noundef %1, ptr noundef %2, ptr noundef %3, ptr noundef %4) #0 {
  %6 = alloca i32, align 4
  %7 = alloca ptr, align 8
  %8 = alloca ptr, align 8
  %9 = alloca ptr, align 8
  %10 = alloca ptr, align 8
  %11 = alloca ptr, align 8
  %12 = alloca ptr, align 8
  %13 = alloca i32, align 4
  %14 = alloca i32, align 4
  store ptr %0, ptr %7, align 8, !tbaa !4
  store ptr %1, ptr %8, align 8, !tbaa !52
  store ptr %2, ptr %9, align 8, !tbaa !53
  store ptr %3, ptr %10, align 8, !tbaa !55
  store ptr %4, ptr %11, align 8, !tbaa !57
  call void @llvm.lifetime.start.p0(i64 8, ptr %12) #11
  call void @llvm.lifetime.start.p0(i64 4, ptr %13) #11
  %15 = load ptr, ptr %7, align 8, !tbaa !4
  store ptr null, ptr %15, align 8, !tbaa !10
  %16 = load ptr, ptr %8, align 8, !tbaa !52
  %17 = load ptr, ptr %10, align 8, !tbaa !55
  %18 = getelementptr inbounds nuw %struct.DecoderOpts, ptr %17, i32 0, i32 0
  %19 = load i32, ptr %18, align 8, !tbaa !58
  %20 = and i32 %19, 16
  %21 = icmp ne i32 %20, 0
  %22 = xor i1 %21, true
  %23 = xor i1 %22, true
  %24 = zext i1 %23 to i32
  %25 = call i32 @dec_alloc(ptr noundef %12, ptr noundef %16, i32 noundef %24)
  store i32 %25, ptr %13, align 4, !tbaa !14
  %26 = load i32, ptr %13, align 4, !tbaa !14
  %27 = icmp slt i32 %26, 0
  br i1 %27, label %28, label %30

28:                                               ; preds = %5
  %29 = load i32, ptr %13, align 4, !tbaa !14
  store i32 %29, ptr %6, align 4
  store i32 1, ptr %14, align 4
  br label %51

30:                                               ; preds = %5
  %31 = load ptr, ptr %12, align 8, !tbaa !12
  %32 = load ptr, ptr %9, align 8, !tbaa !53
  %33 = load ptr, ptr %32, align 8, !tbaa !61
  call void @multiview_check_manual(ptr noundef %31, ptr noundef %33)
  %34 = load ptr, ptr %12, align 8, !tbaa !12
  %35 = load ptr, ptr %9, align 8, !tbaa !53
  %36 = load ptr, ptr %10, align 8, !tbaa !55
  %37 = load ptr, ptr %11, align 8, !tbaa !57
  %38 = call i32 @dec_open(ptr noundef %34, ptr noundef %35, ptr noundef %36, ptr noundef %37)
  store i32 %38, ptr %13, align 4, !tbaa !14
  %39 = load i32, ptr %13, align 4, !tbaa !14
  %40 = icmp slt i32 %39, 0
  br i1 %40, label %41, label %42

41:                                               ; preds = %30
  br label %49

42:                                               ; preds = %30
  %43 = load ptr, ptr %12, align 8, !tbaa !12
  %44 = getelementptr inbounds nuw %struct.DecoderPriv, ptr %43, i32 0, i32 0
  %45 = load ptr, ptr %7, align 8, !tbaa !4
  store ptr %44, ptr %45, align 8, !tbaa !10
  %46 = load ptr, ptr %12, align 8, !tbaa !12
  %47 = getelementptr inbounds nuw %struct.DecoderPriv, ptr %46, i32 0, i32 21
  %48 = load i32, ptr %47, align 8, !tbaa !40
  store i32 %48, ptr %6, align 4
  store i32 1, ptr %14, align 4
  br label %51

49:                                               ; preds = %41
  call void @dec_free(ptr noundef %12)
  %50 = load i32, ptr %13, align 4, !tbaa !14
  store i32 %50, ptr %6, align 4
  store i32 1, ptr %14, align 4
  br label %51

51:                                               ; preds = %49, %42, %28
  call void @llvm.lifetime.end.p0(i64 4, ptr %13) #11
  call void @llvm.lifetime.end.p0(i64 8, ptr %12) #11
  %52 = load i32, ptr %6, align 4
  ret i32 %52
}