; Function Attrs: nounwind uwtable
define i32 @dec_init(ptr noundef writeonly captures(none) initializes((0, 8)) %0, ptr noundef %1, ptr noundef %2, ptr noundef readonly captures(none) %3, ptr noundef %4) local_unnamed_addr #0 {
  %6 = alloca ptr, align 8
  call void @llvm.lifetime.start.p0(i64 8, ptr nonnull %6) #13
  store ptr null, ptr %0, align 8, !tbaa !4
  %7 = load i32, ptr %3, align 8, !tbaa !36
  %8 = lshr i32 %7, 4
  %.lobit = and i32 %8, 1
  %9 = call fastcc i32 @dec_alloc(ptr noundef %6, ptr noundef %1, i32 noundef %.lobit)
  %10 = icmp slt i32 %9, 0
  br i1 %10, label %23, label %11

11:                                               ; preds = %5
  %12 = load ptr, ptr %6, align 8, !tbaa !39
  %13 = load ptr, ptr %2, align 8, !tbaa !41
  %14 = tail call ptr @av_dict_get(ptr noundef %13, ptr noundef nonnull @.str.46, ptr noundef null, i32 noundef 0) #13
  %.not.i = icmp eq ptr %14, null
  br i1 %.not.i, label %multiview_check_manual.exit, label %15

15:                                               ; preds = %11
  tail call void (ptr, i32, ptr, ...) @av_log(ptr noundef %12, i32 noundef 24, ptr noundef nonnull @.str.47) #13
  %16 = getelementptr inbounds nuw i8, ptr %12, i64 256
  store i32 1, ptr %16, align 8, !tbaa !9
  br label %multiview_check_manual.exit

multiview_check_manual.exit:                      ; preds = %11, %15
  %17 = tail call fastcc i32 @dec_open(ptr noundef %12, ptr noundef nonnull %2, ptr noundef nonnull %3, ptr noundef %4)
  %18 = icmp slt i32 %17, 0
  br i1 %18, label %22, label %19

19:                                               ; preds = %multiview_check_manual.exit
  store ptr %12, ptr %0, align 8, !tbaa !4
  %20 = getelementptr inbounds nuw i8, ptr %12, i64 200
  %21 = load i32, ptr %20, align 8, !tbaa !26
  br label %23

22:                                               ; preds = %multiview_check_manual.exit
  call void @dec_free(ptr noundef nonnull %6)
  br label %23

23:                                               ; preds = %5, %22, %19
  %.0 = phi i32 [ %17, %22 ], [ %21, %19 ], [ %9, %5 ]
  call void @llvm.lifetime.end.p0(i64 8, ptr nonnull %6) #13
  ret i32 %.0
}